target datalayout = "e-m:e-p270:32:32-p271:32:32-p272:64:64-i64:64-i128:128-f80:128-n8:16:32:64-S128"
target triple = "x86_64-pc-linux-gnu"

; Function Attrs: nounwind uwtable
define void @Ptngc_comp_conv_to_vals16(ptr noundef %0, i32 noundef %1, ptr noundef %2, ptr noundef %3) #0 {
  %5 = alloca ptr, align 8
  %6 = alloca i32, align 4
  %7 = alloca ptr, align 8
  %8 = alloca ptr, align 8
  %9 = alloca i32, align 4
  %10 = alloca i32, align 4
  %11 = alloca i32, align 4
  %12 = alloca i32, align 4
  %13 = alloca i32, align 4
  %14 = alloca i32, align 4
  store ptr %0, ptr %5, align 8
  store i32 %1, ptr %6, align 4
  store ptr %2, ptr %7, align 8
  store ptr %3, ptr %8, align 8
  store i32 0, ptr %10, align 4
  store i32 0, ptr %9, align 4
  br label %15

15:                                               ; preds = %86, %4
  %16 = load i32, ptr %9, align 4
  %17 = load i32, ptr %6, align 4
  %18 = icmp slt i32 %16, %17
  br i1 %18, label %19, label %89

19:                                               ; preds = %15
  %20 = load ptr, ptr %5, align 8
  %21 = load i32, ptr %9, align 4
  %22 = sext i32 %21 to i64
  %23 = getelementptr inbounds i32, ptr %20, i64 %22
  %24 = load i32, ptr %23, align 4
  %25 = icmp ule i32 %24, 32767
  br i1 %25, label %26, label %37

26:                                               ; preds = %19
  %27 = load ptr, ptr %5, align 8
  %28 = load i32, ptr %9, align 4
  %29 = sext i32 %28 to i64
  %30 = getelementptr inbounds i32, ptr %27, i64 %29
  %31 = load i32, ptr %30, align 4
  %32 = load ptr, ptr %7, align 8
  %33 = load i32, ptr %10, align 4
  %34 = add nsw i32 %33, 1
  store i32 %34, ptr %10, align 4
  %35 = sext i32 %33 to i64
  %36 = getelementptr inbounds i32, ptr %32, i64 %35
  store i32 %31, ptr %36, align 4
  br label %85

37:                                               ; preds = %19
  %38 = load ptr, ptr %5, align 8
  %39 = load i32, ptr %9, align 4
  %40 = sext i32 %39 to i64
  %41 = getelementptr inbounds i32, ptr %38, i64 %40
  %42 = load i32, ptr %41, align 4
  %43 = and i32 %42, 32767
  %44 = or i32 %43, 32768
  store i32 %44, ptr %11, align 4
  %45 = load ptr, ptr %5, align 8
  %46 = load i32, ptr %9, align 4
  %47 = sext i32 %46 to i64
  %48 = getelementptr inbounds i32, ptr %45, i64 %47
  %49 = load i32, ptr %48, align 4
  %50 = lshr i32 %49, 15
  store i32 %50, ptr %12, align 4
  %51 = load i32, ptr %11, align 4
  %52 = load ptr, ptr %7, align 8
  %53 = load i32, ptr %10, align 4
  %54 = add nsw i32 %53, 1
  store i32 %54, ptr %10, align 4
  %55 = sext i32 %53 to i64
  %56 = getelementptr inbounds i32, ptr %52, i64 %55
  store i32 %51, ptr %56, align 4
  %57 = load i32, ptr %12, align 4
  %58 = icmp ule i32 %57, 32767
  br i1 %58, label %59, label %66

59:                                               ; preds = %37
  %60 = load i32, ptr %12, align 4
  %61 = load ptr, ptr %7, align 8
  %62 = load i32, ptr %10, align 4
  %63 = add nsw i32 %62, 1
  store i32 %63, ptr %10, align 4
  %64 = sext i32 %62 to i64
  %65 = getelementptr inbounds i32, ptr %61, i64 %64
  store i32 %60, ptr %65, align 4
  br label %84

66:                                               ; preds = %37
  %67 = load i32, ptr %12, align 4
  %68 = and i32 %67, 32767
  %69 = or i32 %68, 32768
  store i32 %69, ptr %13, align 4
  %70 = load i32, ptr %12, align 4
  %71 = lshr i32 %70, 15
  store i32 %71, ptr %14, align 4
  %72 = load i32, ptr %13, align 4
  %73 = load ptr, ptr %7, align 8
  %74 = load i32, ptr %10, align 4
  %75 = add nsw i32 %74, 1
  store i32 %75, ptr %10, align 4
  %76 = sext i32 %74 to i64
  %77 = getelementptr inbounds i32, ptr %73, i64 %76
  store i32 %72, ptr %77, align 4
  %78 = load i32, ptr %14, align 4
  %79 = load ptr, ptr %7, align 8
  %80 = load i32, ptr %10, align 4
  %81 = add nsw i32 %80, 1
  store i32 %81, ptr %10, align 4
  %82 = sext i32 %80 to i64
  %83 = getelementptr inbounds i32, ptr %79, i64 %82
  store i32 %78, ptr %83, align 4
  br label %84

84:                                               ; preds = %66, %59
  br label %85

85:                                               ; preds = %84, %26
  br label %86

86:                                               ; preds = %85
  %87 = load i32, ptr %9, align 4
  %88 = add nsw i32 %87, 1
  store i32 %88, ptr %9, align 4
  br label %15, !llvm.loop !4

89:                                               ; preds = %15
  %90 = load i32, ptr %10, align 4
  %91 = load ptr, ptr %8, align 8
  store i32 %90, ptr %91, align 4
  ret void
}

; Function Attrs: nounwind uwtable
define void @Ptngc_comp_conv_from_vals16(ptr noundef %0, i32 noundef %1, ptr noundef %2, ptr noundef %3) #0 {
  %5 = alloca ptr, align 8
  %6 = alloca i32, align 4
  %7 = alloca ptr, align 8
  %8 = alloca ptr, align 8
  %9 = alloca i32, align 4
  %10 = alloca i32, align 4
  %11 = alloca i32, align 4
  %12 = alloca i32, align 4
  %13 = alloca i32, align 4
  store ptr %0, ptr %5, align 8
  store i32 %1, ptr %6, align 4
  store ptr %2, ptr %7, align 8
  store ptr %3, ptr %8, align 8
  store i32 0, ptr %9, align 4
  store i32 0, ptr %10, align 4
  br label %14

14:                                               ; preds = %85, %4
  %15 = load i32, ptr %9, align 4
  %16 = load i32, ptr %6, align 4
  %17 = icmp slt i32 %15, %16
  br i1 %17, label %18, label %86

18:                                               ; preds = %14
  %19 = load ptr, ptr %5, align 8
  %20 = load i32, ptr %9, align 4
  %21 = sext i32 %20 to i64
  %22 = getelementptr inbounds i32, ptr %19, i64 %21
  %23 = load i32, ptr %22, align 4
  %24 = icmp ule i32 %23, 32767
  br i1 %24, label %25, label %37

25:                                               ; preds = %18
  %26 = load ptr, ptr %5, align 8
  %27 = load i32, ptr %9, align 4
  %28 = add nsw i32 %27, 1
  store i32 %28, ptr %9, align 4
  %29 = sext i32 %27 to i64
  %30 = getelementptr inbounds i32, ptr %26, i64 %29
  %31 = load i32, ptr %30, align 4
  %32 = load ptr, ptr %7, align 8
  %33 = load i32, ptr %10, align 4
  %34 = add nsw i32 %33, 1
  store i32 %34, ptr %10, align 4
  %35 = sext i32 %33 to i64
  %36 = getelementptr inbounds i32, ptr %32, i64 %35
  store i32 %31, ptr %36, align 4
  br label %85

37:                                               ; preds = %18
  %38 = load ptr, ptr %5, align 8
  %39 = load i32, ptr %9, align 4
  %40 = add nsw i32 %39, 1
  store i32 %40, ptr %9, align 4
  %41 = sext i32 %39 to i64
  %42 = getelementptr inbounds i32, ptr %38, i64 %41
  %43 = load i32, ptr %42, align 4
  store i32 %43, ptr %11, align 4
  %44 = load ptr, ptr %5, align 8
  %45 = load i32, ptr %9, align 4
  %46 = add nsw i32 %45, 1
  store i32 %46, ptr %9, align 4
  %47 = sext i32 %45 to i64
  %48 = getelementptr inbounds i32, ptr %44, i64 %47
  %49 = load i32, ptr %48, align 4
  store i32 %49, ptr %12, align 4
  %50 = load i32, ptr %12, align 4
  %51 = icmp ule i32 %50, 32767
  br i1 %51, label %52, label %63

52:                                               ; preds = %37
  %53 = load i32, ptr %11, align 4
  %54 = and i32 %53, 32767
  %55 = load i32, ptr %12, align 4
  %56 = shl i32 %55, 15
  %57 = or i32 %54, %56
  %58 = load ptr, ptr %7, align 8
  %59 = load i32, ptr %10, align 4
  %60 = add nsw i32 %59, 1
  store i32 %60, ptr %10, align 4
  %61 = sext i32 %59 to i64
  %62 = getelementptr inbounds i32, ptr %58, i64 %61
  store i32 %57, ptr %62, align 4
  br label %84

63:                                               ; preds = %37
  %64 = load ptr, ptr %5, align 8
  %65 = load i32, ptr %9, align 4
  %66 = add nsw i32 %65, 1
  store i32 %66, ptr %9, align 4
  %67 = sext i32 %65 to i64
  %68 = getelementptr inbounds i32, ptr %64, i64 %67
  %69 = load i32, ptr %68, align 4
  store i32 %69, ptr %13, align 4
  %70 = load i32, ptr %11, align 4
  %71 = and i32 %70, 32767
  %72 = load i32, ptr %12, align 4
  %73 = and i32 %72, 32767
  %74 = shl i32 %73, 15
  %75 = or i32 %71, %74
  %76 = load i32, ptr %13, align 4
  %77 = shl i32 %76, 30
  %78 = or i32 %75, %77
  %79 = load ptr, ptr %7, align 8
  %80 = load i32, ptr %10, align 4
  %81 = add nsw i32 %80, 1
  store i32 %81, ptr %10, align 4
  %82 = sext i32 %80 to i64
  %83 = getelementptr inbounds i32, ptr %79, i64 %82
  store i32 %78, ptr %83, align 4
  br label %84

84:                                               ; preds = %63, %52
  br label %85

85:                                               ; preds = %84, %25
  br label %14, !llvm.loop !6

86:                                               ; preds = %14
  %87 = load i32, ptr %10, align 4
  %88 = load ptr, ptr %8, align 8
  store i32 %87, ptr %88, align 4
  ret void
}


!llvm.module.flags = !{!0, !1, !2, !3}

!0 = !{i32 1, !"wchar_size", i32 4}
!1 = !{i32 8, !"PIC Level", i32 2}
!2 = !{i32 7, !"uwtable", i32 2}
!3 = !{i32 7, !"frame-pointer", i32 2}
!4 = distinct !{!4, !5}
!5 = !{!"llvm.loop.mustprogress"}
!6 = distinct !{!6, !5}
